target datalayout = "e-m:e-p270:32:32-p271:32:32-p272:64:64-i64:64-i128:128-f80:128-n8:16:32:64-S128"
target triple = "x86_64-pc-linux-gnu"

%class.anon.669 = type { i8 }

@.str.433 = private unnamed_addr constant [5 x i8] c"name\00", align 1
@.str.434 = private unnamed_addr constant [12 x i8] c"linedefined\00", align 1
@.str.435 = private unnamed_addr constant [6 x i8] c"depth\00", align 1

; Function Attrs: mustprogress uwtable
define internal void @"_ZZZZL21DOCTEST_ANON_FUNC_112vENK3$_0clEP9lua_StateENKUlS1_E_clES1_ENKUlPvPKciiPKimE_clES3_S5_iiS7_m"(ptr noundef nonnull align 1 dereferenceable(1) %0, ptr noundef %1, ptr noundef %2, i32 noundef %3, i32 noundef %4, ptr noundef %5, i64 noundef %6) #4 align 2 {
  %8 = alloca ptr, align 8
  %9 = alloca ptr, align 8
  %10 = alloca ptr, align 8
  %11 = alloca i32, align 4
  %12 = alloca i32, align 4
  %13 = alloca ptr, align 8
  %14 = alloca i64, align 8
  %15 = alloca ptr, align 8
  %16 = alloca i64, align 8
  store ptr %0, ptr %8, align 8
  store ptr %1, ptr %9, align 8
  store ptr %2, ptr %10, align 8
  store i32 %3, ptr %11, align 4
  store i32 %4, ptr %12, align 4
  store ptr %5, ptr %13, align 8
  store i64 %6, ptr %14, align 8
  %17 = load ptr, ptr %9, align 8
  store ptr %17, ptr %15, align 8
  %18 = load ptr, ptr %15, align 8
  call void @_Z15lua_createtableP9lua_Stateii(ptr noundef %18, i32 noundef 0, i32 noundef 0)
  %19 = load ptr, ptr %15, align 8
  %20 = load ptr, ptr %10, align 8
  call void @_Z14lua_pushstringP9lua_StatePKc(ptr noundef %19, ptr noundef %20)
  %21 = load ptr, ptr %15, align 8
  call void @_Z12lua_setfieldP9lua_StateiPKc(ptr noundef %21, i32 noundef -2, ptr noundef @.str.433)
  %22 = load ptr, ptr %15, align 8
  %23 = load i32, ptr %11, align 4
  call void @_Z15lua_pushintegerP9lua_Statei(ptr noundef %22, i32 noundef %23)
  %24 = load ptr, ptr %15, align 8
  call void @_Z12lua_setfieldP9lua_StateiPKc(ptr noundef %24, i32 noundef -2, ptr noundef @.str.434)
  %25 = load ptr, ptr %15, align 8
  %26 = load i32, ptr %12, align 4
  call void @_Z15lua_pushintegerP9lua_Statei(ptr noundef %25, i32 noundef %26)
  %27 = load ptr, ptr %15, align 8
  call void @_Z12lua_setfieldP9lua_StateiPKc(ptr noundef %27, i32 noundef -2, ptr noundef @.str.435)
  store i64 0, ptr %16, align 8
  br label %28

28:                                               ; preds = %48, %7
  %29 = load i64, ptr %16, align 8
  %30 = load i64, ptr %14, align 8
  %31 = icmp ult i64 %29, %30
  br i1 %31, label %32, label %51

32:                                               ; preds = %28
  %33 = load ptr, ptr %13, align 8
  %34 = load i64, ptr %16, align 8
  %35 = getelementptr inbounds i32, ptr %33, i64 %34
  %36 = load i32, ptr %35, align 4
  %37 = icmp ne i32 %36, -1
  br i1 %37, label %38, label %47

38:                                               ; preds = %32
  %39 = load ptr, ptr %15, align 8
  %40 = load ptr, ptr %13, align 8
  %41 = load i64, ptr %16, align 8
  %42 = getelementptr inbounds i32, ptr %40, i64 %41
  %43 = load i32, ptr %42, align 4
  call void @_Z15lua_pushintegerP9lua_Statei(ptr noundef %39, i32 noundef %43)
  %44 = load ptr, ptr %15, align 8
  %45 = load i64, ptr %16, align 8
  %46 = trunc i64 %45 to i32
  call void @_Z11lua_rawsetiP9lua_Stateii(ptr noundef %44, i32 noundef -2, i32 noundef %46)
  br label %47

47:                                               ; preds = %38, %32
  br label %48

48:                                               ; preds = %47
  %49 = load i64, ptr %16, align 8
  %50 = add i64 %49, 1
  store i64 %50, ptr %16, align 8
  br label %28, !llvm.loop !243

51:                                               ; preds = %28
  %52 = load ptr, ptr %15, align 8
  %53 = load ptr, ptr %15, align 8
  %54 = call noundef i32 @_Z10lua_objlenP9lua_Statei(ptr noundef %53, i32 noundef -2)
  %55 = add nsw i32 %54, 1
  call void @_Z11lua_rawsetiP9lua_Stateii(ptr noundef %52, i32 noundef -2, i32 noundef %55)
  ret void
}

; Function Attrs: mustprogress uwtable
define internal void @"_ZZZZL21DOCTEST_ANON_FUNC_112vENK3$_0clEP9lua_StateENKUlS1_E_clES1_ENUlPvPKciiPKimE_8__invokeES3_S5_iiS7_m"(ptr noundef %0, ptr noundef %1, i32 noundef %2, i32 noundef %3, ptr noundef %4, i64 noundef %5) #4 align 2 {
  %7 = alloca ptr, align 8
  %8 = alloca ptr, align 8
  %9 = alloca i32, align 4
  %10 = alloca i32, align 4
  %11 = alloca ptr, align 8
  %12 = alloca i64, align 8
  %13 = alloca %class.anon.669, align 1
  store ptr %0, ptr %7, align 8
  store ptr %1, ptr %8, align 8
  store i32 %2, ptr %9, align 4
  store i32 %3, ptr %10, align 4
  store ptr %4, ptr %11, align 8
  store i64 %5, ptr %12, align 8
  %14 = load ptr, ptr %7, align 8
  %15 = load ptr, ptr %8, align 8
  %16 = load i32, ptr %9, align 4
  %17 = load i32, ptr %10, align 4
  %18 = load ptr, ptr %11, align 8
  %19 = load i64, ptr %12, align 8
  call void @"_ZZZZL21DOCTEST_ANON_FUNC_112vENK3$_0clEP9lua_StateENKUlS1_E_clES1_ENKUlPvPKciiPKimE_clES3_S5_iiS7_m"(ptr noundef nonnull align 1 dereferenceable(1) %13, ptr noundef %14, ptr noundef %15, i32 noundef %16, i32 noundef %17, ptr noundef %18, i64 noundef %19)
  ret void
}