; Function Attrs: mustprogress uwtable
define internal void @"_ZZZZL21DOCTEST_ANON_FUNC_112vENK3$_0clEP9lua_StateENKUlS1_E_clES1_ENUlPvPKciiPKimE_8__invokeES3_S5_iiS7_m"(ptr noundef %0, ptr noundef %1, i32 noundef %2, i32 noundef %3, ptr nocapture noundef readonly %4, i64 noundef %5) #4 align 2 {
  tail call void @_Z15lua_createtableP9lua_Stateii(ptr noundef %0, i32 noundef 0, i32 noundef 0)
  tail call void @_Z14lua_pushstringP9lua_StatePKc(ptr noundef %0, ptr noundef %1)
  tail call void @_Z12lua_setfieldP9lua_StateiPKc(ptr noundef %0, i32 noundef -2, ptr noundef nonnull @.str.433)
  tail call void @_Z15lua_pushintegerP9lua_Statei(ptr noundef %0, i32 noundef %2)
  tail call void @_Z12lua_setfieldP9lua_StateiPKc(ptr noundef %0, i32 noundef -2, ptr noundef nonnull @.str.434)
  tail call void @_Z15lua_pushintegerP9lua_Statei(ptr noundef %0, i32 noundef %3)
  tail call void @_Z12lua_setfieldP9lua_StateiPKc(ptr noundef %0, i32 noundef -2, ptr noundef nonnull @.str.435)
  %.not2.i = icmp eq i64 %5, 0
  br i1 %.not2.i, label %"_ZZZZL21DOCTEST_ANON_FUNC_112vENK3$_0clEP9lua_StateENKUlS1_E_clES1_ENKUlPvPKciiPKimE_clES3_S5_iiS7_m.exit", label %.lr.ph.i

.lr.ph.i:                                         ; preds = %6, %11
  %.01.i = phi i64 [ %12, %11 ], [ 0, %6 ]
  %7 = getelementptr inbounds i32, ptr %4, i64 %.01.i
  %8 = load i32, ptr %7, align 4
  %.not.i = icmp eq i32 %8, -1
  br i1 %.not.i, label %11, label %9

9:                                                ; preds = %.lr.ph.i
  tail call void @_Z15lua_pushintegerP9lua_Statei(ptr noundef %0, i32 noundef %8)
  %10 = trunc i64 %.01.i to i32
  tail call void @_Z11lua_rawsetiP9lua_Stateii(ptr noundef %0, i32 noundef -2, i32 noundef %10)
  br label %11

11:                                               ; preds = %9, %.lr.ph.i
  %12 = add nuw i64 %.01.i, 1
  %exitcond.not.i = icmp eq i64 %12, %5
  br i1 %exitcond.not.i, label %"_ZZZZL21DOCTEST_ANON_FUNC_112vENK3$_0clEP9lua_StateENKUlS1_E_clES1_ENKUlPvPKciiPKimE_clES3_S5_iiS7_m.exit", label %.lr.ph.i, !llvm.loop !390

"_ZZZZL21DOCTEST_ANON_FUNC_112vENK3$_0clEP9lua_StateENKUlS1_E_clES1_ENKUlPvPKciiPKimE_clES3_S5_iiS7_m.exit": ; preds = %11, %6
  %13 = tail call noundef i32 @_Z10lua_objlenP9lua_Statei(ptr noundef %0, i32 noundef -2)
  %14 = add nsw i32 %13, 1
  tail call void @_Z11lua_rawsetiP9lua_Stateii(ptr noundef %0, i32 noundef -2, i32 noundef %14)
  ret void
}